Certificate:
    Data:
        Version: 3 (0x2)
        Serial Number: 1 (0x1)
        Signature Algorithm: sha1WithRSAEncryption
        Issuer: C=BA, ST=RS, L=Banja Luka, O=Elektrotehnicki fakultet, OU=ETF, CN=ca tijelo/emailAddress=ca@mail.com
        Validity
            Not Before: May  6 13:47:21 2024 GMT
            Not After : May  6 13:47:21 2025 GMT
        Subject: C=BA, ST=RS, O=Elektrotehnicki fakultet, OU=ETF, CN=root/emailAddress=root@mail.com
        Subject Public Key Info:
            Public Key Algorithm: rsaEncryption
                Public-Key: (2048 bit)
                Modulus:
                    00:dc:ac:33:c4:9e:ed:14:f2:56:b3:47:4c:66:02:
                    8c:61:11:c8:dd:a5:2d:b2:87:e1:5b:cd:c4:1d:e6:
                    23:78:ee:bc:39:92:ec:a2:36:98:ed:8f:a1:fa:dc:
                    c8:bc:dd:26:db:d9:33:4a:cc:3d:46:89:30:2b:0b:
                    ec:41:56:9a:d1:fd:5d:06:29:0b:09:4f:7d:94:7c:
                    27:f6:db:35:39:56:5f:62:63:49:1f:8c:d9:12:c4:
                    48:c4:35:7f:6c:4f:26:71:d9:0e:5a:a7:cb:90:03:
                    8a:f7:b0:51:ef:82:f2:88:fe:03:35:aa:94:40:49:
                    3b:9d:4d:c8:e8:7a:23:ee:b2:f6:7a:aa:39:91:c5:
                    7f:07:b6:e6:22:b1:46:85:89:1b:08:11:c1:68:f0:
                    02:da:30:e1:10:5a:64:db:1f:0d:94:ee:29:cf:34:
                    97:b8:5d:52:66:63:d0:a7:ed:7b:62:87:3c:f0:ac:
                    01:5d:43:0d:b4:a5:77:63:c1:3a:c0:be:91:16:c3:
                    b7:22:68:0b:ff:09:53:42:80:9d:c9:35:ab:c0:28:
                    21:72:98:52:5a:2b:06:1d:6d:88:d9:07:3e:5e:73:
                    21:be:57:e3:db:c8:42:e9:9f:35:e1:81:4e:f5:53:
                    86:11:fc:02:a7:15:f6:bd:a2:10:2d:05:5d:da:3c:
                    ee:f1
                Exponent: 65537 (0x10001)
        X509v3 extensions:
            X509v3 Basic Constraints: 
                CA:FALSE
            X509v3 Key Usage: 
                Digital Signature
            X509v3 Extended Key Usage: 
                TLS Web Client Authentication, TLS Web Server Authentication
            Netscape Comment: 
                OpenSSL Generated Certificate
            X509v3 Subject Key Identifier: 
                A1:92:43:FC:54:EB:53:46:E8:C5:2C:5A:36:8F:D7:3A:40:85:83:C2
            X509v3 Authority Key Identifier: 
                87:25:34:04:88:8E:89:F6:76:2B:45:9B:AA:D4:99:06:03:8A:C8:A9
            X509v3 CRL Distribution Points: 
                Full Name:
                  URI:http://192.168.21.89/rootcrl.pem
    Signature Algorithm: sha1WithRSAEncryption
    Signature Value:
        04:1f:24:71:78:d5:7c:17:f0:58:95:8a:c5:94:bf:4b:a2:d4:
        7c:21:16:f0:24:00:f7:dc:57:70:3d:fd:fc:5d:28:61:e0:ce:
        74:31:bb:58:2d:b8:f2:3d:08:f2:11:79:10:15:81:2c:ca:5e:
        d3:23:5b:ea:90:fc:eb:2a:84:bc:97:64:46:3e:96:bd:6e:b9:
        fb:db:6d:f8:42:4d:42:28:4b:a1:1f:94:a7:14:f1:10:05:7c:
        2d:d3:e4:ad:a4:0f:1a:26:fd:a8:05:0e:f3:d6:bf:24:74:77:
        77:1f:fd:89:c9:9d:00:69:bb:ed:f8:e9:dc:02:ff:03:e0:6c:
        14:4f:11:bd:17:a4:9e:6d:2e:da:65:41:1c:3a:cd:bf:43:6b:
        d2:b2:3e:db:16:b2:ea:37:ee:37:5b:55:c2:f3:40:9f:f0:a0:
        76:7b:bd:3a:0a:95:c8:64:e7:a7:4d:69:85:ab:1f:ff:33:fc:
        18:ac:cf:42:7f:6a:a4:30:21:8f:8a:16:a2:e3:45:d4:a2:ca:
        30:61:a6:71:32:eb:39:6a:a1:71:67:66:6d:c4:f6:6d:98:73:
        ee:dd:f6:4f:87:ca:a7:6f:64:49:a4:c4:69:40:27:a2:ed:76:
        dd:bd:7d:9c:cb:cf:8c:81:2c:77:14:45:86:cf:bf:24:e2:64:
        0a:c4:2e:53
-----BEGIN CERTIFICATE-----
MIIEYDCCA0igAwIBAgIBATANBgkqhkiG9w0BAQUFADCBkDELMAkGA1UEBhMCQkEx
CzAJBgNVBAgTAlJTMRMwEQYDVQQHEwpCYW5qYSBMdWthMSEwHwYDVQQKExhFbGVr
dHJvdGVobmlja2kgZmFrdWx0ZXQxDDAKBgNVBAsTA0VURjESMBAGA1UEAxMJY2Eg
dGlqZWxvMRowGAYJKoZIhvcNAQkBFgtjYUBtYWlsLmNvbTAeFw0yNDA1MDYxMzQ3
MjFaFw0yNTA1MDYxMzQ3MjFaMHgxCzAJBgNVBAYTAkJBMQswCQYDVQQIEwJSUzEh
MB8GA1UEChMYRWxla3Ryb3RlaG5pY2tpIGZha3VsdGV0MQwwCgYDVQQLEwNFVEYx
DTALBgNVBAMTBHJvb3QxHDAaBgkqhkiG9w0BCQEWDXJvb3RAbWFpbC5jb20wggEi
MA0GCSqGSIb3DQEBAQUAA4IBDwAwggEKAoIBAQDcrDPEnu0U8lazR0xmAoxhEcjd
pS2yh+FbzcQd5iN47rw5kuyiNpjtj6H63Mi83Sbb2TNKzD1GiTArC+xBVprR/V0G
KQsJT32UfCf22zU5Vl9iY0kfjNkSxEjENX9sTyZx2Q5ap8uQA4r3sFHvgvKI/gM1
qpRASTudTcjoeiPusvZ6qjmRxX8HtuYisUaFiRsIEcFo8ALaMOEQWmTbHw2U7inP
NJe4XVJmY9Cn7XtihzzwrAFdQw20pXdjwTrAvpEWw7ciaAv/CVNCgJ3JNavAKCFy
mFJaKwYdbYjZBz5ecyG+V+PbyELpnzXhgU71U4YR/AKnFfa9ohAtBV3aPO7xAgMB
AAGjgdswgdgwCQYDVR0TBAIwADALBgNVHQ8EBAMCB4AwHQYDVR0lBBYwFAYIKwYB
BQUHAwIGCCsGAQUFBwMBMCwGCWCGSAGG+EIBDQQfFh1PcGVuU1NMIEdlbmVyYXRl
ZCBDZXJ0aWZpY2F0ZTAdBgNVHQ4EFgQUoZJD/FTrU0boxSxaNo/XOkCFg8IwHwYD
VR0jBBgwFoAUhyU0BIiOifZ2K0WbqtSZBgOKyKkwMQYDVR0fBCowKDAmoCSgIoYg
aHR0cDovLzE5Mi4xNjguMjEuODkvcm9vdGNybC5wZW0wDQYJKoZIhvcNAQEFBQAD
ggEBAAQfJHF41XwX8FiVisWUv0ui1HwhFvAkAPfcV3A9/fxdKGHgznQxu1gtuPI9
CPIReRAVgSzKXtMjW+qQ/OsqhLyXZEY+lr1uufvbbfhCTUIoS6EflKcU8RAFfC3T
5K2kDxom/agFDvPWvyR0d3cf/YnJnQBpu+346dwC/wPgbBRPEb0XpJ5tLtplQRw6
zb9Da9KyPtsWsuo37jdbVcLzQJ/woHZ7vToKlchk56dNaYWrH/8z/Bisz0J/aqQw
IY+KFqLjRdSiyjBhpnEy6zlqoXFnZm3E9m2Yc+7d9k+HyqdvZEmkxGlAJ6Ltdt29
fZzLz4yBLHcURYbPvyTiZArELlM=
-----END CERTIFICATE-----
